; Function Attrs: nounwind uwtable
define dso_local i64 @int4_mul_cash(ptr noundef readonly captures(none) %0) local_unnamed_addr #0 {
  %2 = getelementptr inbounds nuw i8, ptr %0, i64 32
  %3 = load i64, ptr %2, align 8
  %4 = getelementptr inbounds nuw i8, ptr %0, i64 48
  %5 = load i64, ptr %4, align 8
  %sext = shl i64 %3, 32
  %6 = ashr exact i64 %sext, 32
  %7 = tail call { i64, i1 } @llvm.smul.with.overflow.i64(i64 %5, i64 %6)
  %8 = extractvalue { i64, i1 } %7, 1
  br i1 %8, label %9, label %cash_mul_int64.exit, !prof !17

9:                                                ; preds = %1
  %10 = tail call zeroext i1 @errstart_cold(i32 noundef 21, ptr noundef null) #16
  tail call void @llvm.assume(i1 %10)
  %11 = tail call i32 @errcode(i32 noundef 50331778) #13
  %12 = tail call i32 (ptr, ...) @errmsg(ptr noundef nonnull @.str.25) #13
  tail call void @errfinish(ptr noundef nonnull @.str.7, i32 noundef 150, ptr noundef nonnull @__func__.cash_mul_int64) #13
  unreachable

cash_mul_int64.exit:                              ; preds = %1
  %13 = extractvalue { i64, i1 } %7, 0
  ret i64 %13
}